target datalayout = "e-m:e-p270:32:32-p271:32:32-p272:64:64-i64:64-i128:128-f80:128-n8:16:32:64-S128"
target triple = "x86_64-pc-linux-gnu"

%class.G1RemSetSummary = type { i64, ptr }

; Function Attrs: mustprogress nounwind uwtable
define hidden void @_ZN15G1RemSetSummary19set_rs_thread_vtimeEjd(ptr noundef nonnull align 8 dereferenceable(16) %0, i32 noundef %1, double noundef %2) #1 align 2 {
  %4 = alloca ptr, align 8
  %5 = alloca i32, align 4
  %6 = alloca double, align 8
  store ptr %0, ptr %4, align 8
  store i32 %1, ptr %5, align 4
  store double %2, ptr %6, align 8
  %7 = load ptr, ptr %4, align 8
  %8 = load double, ptr %6, align 8
  %9 = getelementptr inbounds %class.G1RemSetSummary, ptr %7, i32 0, i32 1
  %10 = load ptr, ptr %9, align 8
  %11 = load i32, ptr %5, align 4
  %12 = zext i32 %11 to i64
  %13 = getelementptr inbounds double, ptr %10, i64 %12
  store double %8, ptr %13, align 8
  ret void
}

; Function Attrs: mustprogress nounwind uwtable
define hidden noundef double @_ZNK15G1RemSetSummary15rs_thread_vtimeEj(ptr noundef nonnull align 8 dereferenceable(16) %0, i32 noundef %1) #1 align 2 {
  %3 = alloca ptr, align 8
  %4 = alloca i32, align 4
  store ptr %0, ptr %3, align 8
  store i32 %1, ptr %4, align 4
  %5 = load ptr, ptr %3, align 8
  %6 = getelementptr inbounds %class.G1RemSetSummary, ptr %5, i32 0, i32 1
  %7 = load ptr, ptr %6, align 8
  %8 = load i32, ptr %4, align 4
  %9 = zext i32 %8 to i64
  %10 = getelementptr inbounds double, ptr %7, i64 %9
  %11 = load double, ptr %10, align 8
  ret double %11
}

; Function Attrs: mustprogress nounwind uwtable
define hidden void @_ZN15G1RemSetSummary13subtract_fromEPS_(ptr noundef nonnull align 8 dereferenceable(16) %0, ptr noundef %1) #1 align 2 {
  %3 = alloca ptr, align 8
  %4 = alloca ptr, align 8
  %5 = alloca i32, align 4
  store ptr %0, ptr %3, align 8
  store ptr %1, ptr %4, align 8
  %6 = load ptr, ptr %3, align 8
  store i32 0, ptr %5, align 4
  br label %7

7:                                                ; preds = %21, %2
  %8 = load i32, ptr %5, align 4
  %9 = zext i32 %8 to i64
  %10 = getelementptr inbounds %class.G1RemSetSummary, ptr %6, i32 0, i32 0
  %11 = load i64, ptr %10, align 8
  %12 = icmp ult i64 %9, %11
  br i1 %12, label %13, label %24

13:                                               ; preds = %7
  %14 = load i32, ptr %5, align 4
  %15 = load ptr, ptr %4, align 8
  %16 = load i32, ptr %5, align 4
  %17 = call noundef double @_ZNK15G1RemSetSummary15rs_thread_vtimeEj(ptr noundef nonnull align 8 dereferenceable(16) %15, i32 noundef %16)
  %18 = load i32, ptr %5, align 4
  %19 = call noundef double @_ZNK15G1RemSetSummary15rs_thread_vtimeEj(ptr noundef nonnull align 8 dereferenceable(16) %6, i32 noundef %18)
  %20 = fsub double %17, %19
  call void @_ZN15G1RemSetSummary19set_rs_thread_vtimeEjd(ptr noundef nonnull align 8 dereferenceable(16) %6, i32 noundef %14, double noundef %20)
  br label %21

21:                                               ; preds = %13
  %22 = load i32, ptr %5, align 4
  %23 = add i32 %22, 1
  store i32 %23, ptr %5, align 4
  br label %7, !llvm.loop !6

24:                                               ; preds = %7
  ret void
}