; Function Attrs: mustprogress nofree norecurse nosync nounwind memory(readwrite, inaccessiblemem: none) uwtable
define hidden void @_ZN15G1RemSetSummary13subtract_fromEPS_(ptr nocapture noundef nonnull readonly align 8 dereferenceable(16) %0, ptr nocapture noundef readonly %1) local_unnamed_addr #7 align 2 {
  %3 = load i64, ptr %0, align 8
  %.not = icmp eq i64 %3, 0
  br i1 %.not, label %._crit_edge, label %.lr.ph

.lr.ph:                                           ; preds = %2
  %4 = getelementptr inbounds i8, ptr %1, i64 8
  %5 = getelementptr inbounds i8, ptr %0, i64 8
  br label %6

6:                                                ; preds = %.lr.ph, %6
  %7 = phi i64 [ 0, %.lr.ph ], [ %16, %6 ]
  %.06 = phi i32 [ 0, %.lr.ph ], [ %15, %6 ]
  %8 = load ptr, ptr %4, align 8
  %9 = getelementptr inbounds double, ptr %8, i64 %7
  %10 = load double, ptr %9, align 8
  %11 = load ptr, ptr %5, align 8
  %12 = getelementptr inbounds double, ptr %11, i64 %7
  %13 = load double, ptr %12, align 8
  %14 = fsub double %10, %13
  store double %14, ptr %12, align 8
  %15 = add i32 %.06, 1
  %16 = zext i32 %15 to i64
  %17 = load i64, ptr %0, align 8
  %18 = icmp ugt i64 %17, %16
  br i1 %18, label %6, label %._crit_edge, !llvm.loop !6

._crit_edge:                                      ; preds = %6, %2
  ret void
}